; ModuleID = 'source-C-CXX/60/431.cpp'
source_filename = "source-C-CXX/60/431.cpp"
target datalayout = "e-m:e-p270:32:32-p271:32:32-p272:64:64-i64:64-f80:128-n8:16:32:64-S128"
target triple = "x86_64-pc-linux-gnu"

%"class.std::ios_base::Init" = type { i8 }
%"class.std::basic_istream" = type { i32 (...)**, i64, %"class.std::basic_ios" }
%"class.std::basic_ios" = type { %"class.std::ios_base", %"class.std::basic_ostream"*, i8, i8, %"class.std::basic_streambuf"*, %"class.std::ctype"*, %"class.std::num_put"*, %"class.std::num_get"* }
%"class.std::ios_base" = type { i32 (...)**, i64, i64, i32, i32, i32, %"struct.std::ios_base::_Callback_list"*, %"struct.std::ios_base::_Words", [8 x %"struct.std::ios_base::_Words"], i32, %"struct.std::ios_base::_Words"*, %"class.std::locale" }
%"struct.std::ios_base::_Callback_list" = type { %"struct.std::ios_base::_Callback_list"*, void (i32, %"class.std::ios_base"*, i32)*, i32, i32 }
%"struct.std::ios_base::_Words" = type { i8*, i64 }
%"class.std::locale" = type { %"class.std::locale::_Impl"* }
%"class.std::locale::_Impl" = type { i32, %"class.std::locale::facet"**, i64, %"class.std::locale::facet"**, i8** }
%"class.std::locale::facet" = type <{ i32 (...)**, i32, [4 x i8] }>
%"class.std::basic_ostream" = type { i32 (...)**, %"class.std::basic_ios" }
%"class.std::basic_streambuf" = type { i32 (...)**, i8*, i8*, i8*, i8*, i8*, i8*, %"class.std::locale" }
%"class.std::ctype" = type <{ %"class.std::locale::facet.base", [4 x i8], %struct.__locale_struct*, i8, [7 x i8], i32*, i32*, i16*, i8, [256 x i8], [256 x i8], i8, [6 x i8] }>
%"class.std::locale::facet.base" = type <{ i32 (...)**, i32 }>
%struct.__locale_struct = type { [13 x %struct.__locale_data*], i16*, i32*, i32*, [13 x i8*] }
%struct.__locale_data = type opaque
%"class.std::num_put" = type { %"class.std::locale::facet.base", [4 x i8] }
%"class.std::num_get" = type { %"class.std::locale::facet.base", [4 x i8] }

@_ZStL8__ioinit = internal global %"class.std::ios_base::Init" zeroinitializer, align 1
@__dso_handle = external hidden global i8
@_ZSt3cin = external global %"class.std::basic_istream", align 8
@_ZSt4cout = external global %"class.std::basic_ostream", align 8
@llvm.global_ctors = appending global [1 x { i32, void ()*, i8* }] [{ i32, void ()*, i8* } { i32 65535, void ()* @_GLOBAL__sub_I_431.cpp, i8* null }]

declare void @_ZNSt8ios_base4InitC1Ev(%"class.std::ios_base::Init"* nonnull align 1 dereferenceable(1)) unnamed_addr #0

; Function Attrs: nounwind
declare void @_ZNSt8ios_base4InitD1Ev(%"class.std::ios_base::Init"* nonnull align 1 dereferenceable(1)) unnamed_addr #1

; Function Attrs: nofree nounwind
declare i32 @__cxa_atexit(void (i8*)*, i8*, i8*) local_unnamed_addr #2

; Function Attrs: mustprogress norecurse sspstrong uwtable
define dso_local i32 @main() local_unnamed_addr #3 {
  %1 = alloca i32, align 4
  %2 = alloca [21 x i32], align 16
  %3 = bitcast i32* %1 to i8*
  call void @llvm.lifetime.start.p0i8(i64 4, i8* nonnull %3) #7
  %4 = call nonnull align 8 dereferenceable(16) %"class.std::basic_istream"* @_ZNSirsERi(%"class.std::basic_istream"* nonnull align 8 dereferenceable(16) @_ZSt3cin, i32* nonnull align 4 dereferenceable(4) %1)
  %5 = bitcast [21 x i32]* %2 to i8*
  call void @llvm.lifetime.start.p0i8(i64 84, i8* nonnull %5) #7
  %6 = load i32, i32* %1, align 4, !tbaa !5
  %7 = icmp sgt i32 %6, 0
  br i1 %7, label %10, label %107

8:                                                ; preds = %10
  %9 = icmp sgt i32 %15, 0
  br i1 %9, label %18, label %107

10:                                               ; preds = %0, %10
  %11 = phi i64 [ %14, %10 ], [ 0, %0 ]
  %12 = getelementptr inbounds [21 x i32], [21 x i32]* %2, i64 0, i64 %11
  %13 = call nonnull align 8 dereferenceable(16) %"class.std::basic_istream"* @_ZNSirsERi(%"class.std::basic_istream"* nonnull align 8 dereferenceable(16) @_ZSt3cin, i32* nonnull align 4 dereferenceable(4) %12)
  %14 = add nuw nsw i64 %11, 1
  %15 = load i32, i32* %1, align 4, !tbaa !5
  %16 = sext i32 %15 to i64
  %17 = icmp slt i64 %14, %16
  br i1 %17, label %10, label %8, !llvm.loop !9

18:                                               ; preds = %8, %99
  %19 = phi i64 [ %103, %99 ], [ 0, %8 ]
  %20 = phi i32 [ %72, %99 ], [ undef, %8 ]
  %21 = phi i32 [ %71, %99 ], [ undef, %8 ]
  %22 = getelementptr inbounds [21 x i32], [21 x i32]* %2, i64 0, i64 %19
  %23 = load i32, i32* %22, align 4, !tbaa !5
  %24 = icmp slt i32 %23, 1
  br i1 %24, label %70, label %25

25:                                               ; preds = %18
  %26 = add i32 %23, -1
  %27 = and i32 %23, 3
  %28 = icmp ult i32 %26, 3
  br i1 %28, label %50, label %29

29:                                               ; preds = %25
  %30 = and i32 %23, -4
  br label %31

31:                                               ; preds = %31, %29
  %32 = phi i32 [ %20, %29 ], [ %46, %31 ]
  %33 = phi i32 [ %21, %29 ], [ %45, %31 ]
  %34 = phi i32 [ 1, %29 ], [ %47, %31 ]
  %35 = phi i32 [ %30, %29 ], [ %48, %31 ]
  %36 = add nsw i32 %34, -1
  %37 = icmp ult i32 %36, 2
  %38 = add nsw i32 %32, %33
  %39 = select i1 %37, i32 1, i32 %32
  %40 = select i1 %37, i32 1, i32 %38
  %41 = icmp ult i32 %34, 2
  %42 = add nsw i32 %40, %39
  %43 = select i1 %41, i32 1, i32 %40
  %44 = select i1 %41, i32 1, i32 %42
  %45 = add nsw i32 %44, %43
  %46 = add nsw i32 %45, %44
  %47 = add nuw i32 %34, 4
  %48 = add i32 %35, -4
  %49 = icmp eq i32 %48, 0
  br i1 %49, label %50, label %31, !llvm.loop !11

50:                                               ; preds = %31, %25
  %51 = phi i32 [ undef, %25 ], [ %45, %31 ]
  %52 = phi i32 [ undef, %25 ], [ %46, %31 ]
  %53 = phi i32 [ %20, %25 ], [ %46, %31 ]
  %54 = phi i32 [ %21, %25 ], [ %45, %31 ]
  %55 = phi i32 [ 1, %25 ], [ %47, %31 ]
  %56 = icmp eq i32 %27, 0
  br i1 %56, label %70, label %57

57:                                               ; preds = %50, %57
  %58 = phi i32 [ %66, %57 ], [ %53, %50 ]
  %59 = phi i32 [ %65, %57 ], [ %54, %50 ]
  %60 = phi i32 [ %67, %57 ], [ %55, %50 ]
  %61 = phi i32 [ %68, %57 ], [ %27, %50 ]
  %62 = add nsw i32 %60, -1
  %63 = icmp ult i32 %62, 2
  %64 = add nsw i32 %58, %59
  %65 = select i1 %63, i32 1, i32 %58
  %66 = select i1 %63, i32 1, i32 %64
  %67 = add nuw i32 %60, 1
  %68 = add i32 %61, -1
  %69 = icmp eq i32 %68, 0
  br i1 %69, label %70, label %57, !llvm.loop !12

70:                                               ; preds = %50, %57, %18
  %71 = phi i32 [ %21, %18 ], [ %51, %50 ], [ %65, %57 ]
  %72 = phi i32 [ %20, %18 ], [ %52, %50 ], [ %66, %57 ]
  %73 = call nonnull align 8 dereferenceable(8) %"class.std::basic_ostream"* @_ZNSolsEi(%"class.std::basic_ostream"* nonnull align 8 dereferenceable(8) @_ZSt4cout, i32 %72)
  %74 = bitcast %"class.std::basic_ostream"* %73 to i8**
  %75 = load i8*, i8** %74, align 8, !tbaa !14
  %76 = getelementptr i8, i8* %75, i64 -24
  %77 = bitcast i8* %76 to i64*
  %78 = load i64, i64* %77, align 8
  %79 = bitcast %"class.std::basic_ostream"* %73 to i8*
  %80 = add nsw i64 %78, 240
  %81 = getelementptr inbounds i8, i8* %79, i64 %80
  %82 = bitcast i8* %81 to %"class.std::ctype"**
  %83 = load %"class.std::ctype"*, %"class.std::ctype"** %82, align 8, !tbaa !16
  %84 = icmp eq %"class.std::ctype"* %83, null
  br i1 %84, label %85, label %86

85:                                               ; preds = %70
  call void @_ZSt16__throw_bad_castv() #8
  unreachable

86:                                               ; preds = %70
  %87 = getelementptr inbounds %"class.std::ctype", %"class.std::ctype"* %83, i64 0, i32 8
  %88 = load i8, i8* %87, align 8, !tbaa !20
  %89 = icmp eq i8 %88, 0
  br i1 %89, label %93, label %90

90:                                               ; preds = %86
  %91 = getelementptr inbounds %"class.std::ctype", %"class.std::ctype"* %83, i64 0, i32 9, i64 10
  %92 = load i8, i8* %91, align 1, !tbaa !22
  br label %99

93:                                               ; preds = %86
  call void @_ZNKSt5ctypeIcE13_M_widen_initEv(%"class.std::ctype"* nonnull align 8 dereferenceable(570) %83)
  %94 = bitcast %"class.std::ctype"* %83 to i8 (%"class.std::ctype"*, i8)***
  %95 = load i8 (%"class.std::ctype"*, i8)**, i8 (%"class.std::ctype"*, i8)*** %94, align 8, !tbaa !14
  %96 = getelementptr inbounds i8 (%"class.std::ctype"*, i8)*, i8 (%"class.std::ctype"*, i8)** %95, i64 6
  %97 = load i8 (%"class.std::ctype"*, i8)*, i8 (%"class.std::ctype"*, i8)** %96, align 8
  %98 = call signext i8 %97(%"class.std::ctype"* nonnull align 8 dereferenceable(570) %83, i8 signext 10)
  br label %99

99:                                               ; preds = %90, %93
  %100 = phi i8 [ %92, %90 ], [ %98, %93 ]
  %101 = call nonnull align 8 dereferenceable(8) %"class.std::basic_ostream"* @_ZNSo3putEc(%"class.std::basic_ostream"* nonnull align 8 dereferenceable(8) %73, i8 signext %100)
  %102 = call nonnull align 8 dereferenceable(8) %"class.std::basic_ostream"* @_ZNSo5flushEv(%"class.std::basic_ostream"* nonnull align 8 dereferenceable(8) %101)
  %103 = add nuw nsw i64 %19, 1
  %104 = load i32, i32* %1, align 4, !tbaa !5
  %105 = sext i32 %104 to i64
  %106 = icmp slt i64 %103, %105
  br i1 %106, label %18, label %107, !llvm.loop !23

107:                                              ; preds = %99, %0, %8
  call void @llvm.lifetime.end.p0i8(i64 84, i8* nonnull %5) #7
  call void @llvm.lifetime.end.p0i8(i64 4, i8* nonnull %3) #7
  ret i32 0
}

; Function Attrs: argmemonly mustprogress nofree nosync nounwind willreturn
declare void @llvm.lifetime.start.p0i8(i64 immarg, i8* nocapture) #4

declare nonnull align 8 dereferenceable(16) %"class.std::basic_istream"* @_ZNSirsERi(%"class.std::basic_istream"* nonnull align 8 dereferenceable(16), i32* nonnull align 4 dereferenceable(4)) local_unnamed_addr #0

declare nonnull align 8 dereferenceable(8) %"class.std::basic_ostream"* @_ZNSolsEi(%"class.std::basic_ostream"* nonnull align 8 dereferenceable(8), i32) local_unnamed_addr #0

; Function Attrs: argmemonly mustprogress nofree nosync nounwind willreturn
declare void @llvm.lifetime.end.p0i8(i64 immarg, i8* nocapture) #4

declare nonnull align 8 dereferenceable(8) %"class.std::basic_ostream"* @_ZNSo3putEc(%"class.std::basic_ostream"* nonnull align 8 dereferenceable(8), i8 signext) local_unnamed_addr #0

declare nonnull align 8 dereferenceable(8) %"class.std::basic_ostream"* @_ZNSo5flushEv(%"class.std::basic_ostream"* nonnull align 8 dereferenceable(8)) local_unnamed_addr #0

; Function Attrs: noreturn
declare void @_ZSt16__throw_bad_castv() local_unnamed_addr #5

declare void @_ZNKSt5ctypeIcE13_M_widen_initEv(%"class.std::ctype"* nonnull align 8 dereferenceable(570)) local_unnamed_addr #0

; Function Attrs: sspstrong uwtable
define internal void @_GLOBAL__sub_I_431.cpp() #6 section ".text.startup" {
  tail call void @_ZNSt8ios_base4InitC1Ev(%"class.std::ios_base::Init"* nonnull align 1 dereferenceable(1) @_ZStL8__ioinit)
  %1 = tail call i32 @__cxa_atexit(void (i8*)* bitcast (void (%"class.std::ios_base::Init"*)* @_ZNSt8ios_base4InitD1Ev to void (i8*)*), i8* getelementptr inbounds (%"class.std::ios_base::Init", %"class.std::ios_base::Init"* @_ZStL8__ioinit, i64 0, i32 0), i8* nonnull @__dso_handle) #7
  ret void
}


!llvm.module.flags = !{!0, !1, !2, !3}
!llvm.ident = !{!4}

!0 = !{i32 1, !"wchar_size", i32 4}
!1 = !{i32 7, !"PIC Level", i32 2}
!2 = !{i32 7, !"PIE Level", i32 2}
!3 = !{i32 7, !"uwtable", i32 1}
!4 = !{!"clang version 13.0.0"}
!5 = !{!6, !6, i64 0}
!6 = !{!"int", !7, i64 0}
!7 = !{!"omnipotent char", !8, i64 0}
!8 = !{!"Simple C++ TBAA"}
!9 = distinct !{!9, !10}
!10 = !{!"llvm.loop.mustprogress"}
!11 = distinct !{!11, !10}
!12 = distinct !{!12, !13}
!13 = !{!"llvm.loop.unroll.disable"}
!14 = !{!15, !15, i64 0}
!15 = !{!"vtable pointer", !8, i64 0}
!16 = !{!17, !18, i64 240}
!17 = !{!"_ZTSSt9basic_iosIcSt11char_traitsIcEE", !18, i64 216, !7, i64 224, !19, i64 225, !18, i64 232, !18, i64 240, !18, i64 248, !18, i64 256}
!18 = !{!"any pointer", !7, i64 0}
!19 = !{!"bool", !7, i64 0}
!20 = !{!21, !7, i64 56}
!21 = !{!"_ZTSSt5ctypeIcE", !18, i64 16, !19, i64 24, !18, i64 32, !18, i64 40, !18, i64 48, !7, i64 56, !7, i64 57, !7, i64 313, !7, i64 569}
!22 = !{!7, !7, i64 0}
!23 = distinct !{!23, !10}
